target datalayout = "e-m:e-p270:32:32-p271:32:32-p272:64:64-i64:64-i128:128-f80:128-n8:16:32:64-S128"
target triple = "x86_64-pc-linux-gnu"

%"class.clang::SourceLocation" = type { i32 }
%"class.clang::SourceRange" = type { %"class.clang::SourceLocation", %"class.clang::SourceLocation" }
%"class.clang::AttributeCommonInfo" = type { ptr, ptr, %"class.clang::SourceRange", %"class.clang::SourceLocation", i32 }
%"class.clang::InheritableAttr.base" = type { %"class.clang::Attr.base" }
%"class.clang::Attr.base" = type <{ %"class.clang::AttributeCommonInfo", i16, i8 }>
%"class.clang::SharedTrylockFunctionAttr" = type { %"class.clang::InheritableAttr.base", ptr, i32, ptr }

; Function Attrs: mustprogress nounwind uwtable
define linkonce_odr hidden noundef ptr @_ZNK5clang25SharedTrylockFunctionAttr8args_endEv(ptr noundef nonnull align 8 dereferenceable(64) %0) #0 comdat align 2 {
  %2 = alloca ptr, align 8
  store ptr %0, ptr %2, align 8
  %3 = load ptr, ptr %2, align 8
  %4 = getelementptr inbounds nuw %"class.clang::SharedTrylockFunctionAttr", ptr %3, i32 0, i32 3
  %5 = load ptr, ptr %4, align 8
  %6 = getelementptr inbounds nuw %"class.clang::SharedTrylockFunctionAttr", ptr %3, i32 0, i32 2
  %7 = load i32, ptr %6, align 8
  %8 = zext i32 %7 to i64
  %9 = getelementptr inbounds ptr, ptr %5, i64 %8
  ret ptr %9
}

; Function Attrs: mustprogress nounwind uwtable
define linkonce_odr hidden noundef ptr @_ZNK5clang25SharedTrylockFunctionAttr10args_beginEv(ptr noundef nonnull align 8 dereferenceable(64) %0) #0 comdat align 2 {
  %2 = alloca ptr, align 8
  store ptr %0, ptr %2, align 8
  %3 = load ptr, ptr %2, align 8
  %4 = getelementptr inbounds nuw %"class.clang::SharedTrylockFunctionAttr", ptr %3, i32 0, i32 3
  %5 = load ptr, ptr %4, align 8
  ret ptr %5
}

; Function Attrs: mustprogress nounwind uwtable
define linkonce_odr hidden noundef ptr @_ZNK5clang25SharedTrylockFunctionAttr15getSuccessValueEv(ptr noundef nonnull align 8 dereferenceable(64) %0) #0 comdat align 2 {
  %2 = alloca ptr, align 8
  store ptr %0, ptr %2, align 8
  %3 = load ptr, ptr %2, align 8
  %4 = getelementptr inbounds nuw %"class.clang::SharedTrylockFunctionAttr", ptr %3, i32 0, i32 1
  %5 = load ptr, ptr %4, align 8
  ret ptr %5
}

; Function Attrs: mustprogress nounwind uwtable
define internal noundef zeroext i1 @_ZN5clang19RecursiveASTVisitorIN12_GLOBAL__N_123ZeroOutInDeallocRemoverEE30VisitSharedTrylockFunctionAttrEPNS_25SharedTrylockFunctionAttrE(ptr noundef nonnull align 1 dereferenceable(1) %0, ptr noundef %1) #0 align 2 {
  %3 = alloca ptr, align 8
  %4 = alloca ptr, align 8
  store ptr %0, ptr %3, align 8
  store ptr %1, ptr %4, align 8
  ret i1 true
}

; Function Attrs: mustprogress nounwind uwtable
define internal noundef zeroext i1 @_ZN5clang19RecursiveASTVisitorIN12_GLOBAL__N_123ZeroOutInDeallocRemoverEE9VisitAttrEPNS_4AttrE(ptr noundef nonnull align 1 dereferenceable(1) %0, ptr noundef %1) #0 align 2 {
  %3 = alloca ptr, align 8
  %4 = alloca ptr, align 8
  store ptr %0, ptr %3, align 8
  store ptr %1, ptr %4, align 8
  ret i1 true
}

; Function Attrs: mustprogress nounwind uwtable
define internal noundef nonnull align 8 dereferenceable(72) ptr @_ZN5clang19RecursiveASTVisitorIN12_GLOBAL__N_123ZeroOutInDeallocRemoverEE10getDerivedEv(ptr noundef nonnull align 1 dereferenceable(1) %0) #0 align 2 {
  %2 = alloca ptr, align 8
  store ptr %0, ptr %2, align 8
  %3 = load ptr, ptr %2, align 8
  ret ptr %3
}

; Function Attrs: mustprogress nounwind uwtable
define internal noundef zeroext i1 @_ZN5clang19RecursiveASTVisitorIN12_GLOBAL__N_123ZeroOutInDeallocRemoverEE33TraverseSharedTrylockFunctionAttrEPNS_25SharedTrylockFunctionAttrE(ptr noundef nonnull align 1 dereferenceable(1) %0, ptr noundef %1) #0 align 2 {
  %3 = alloca i1, align 1
  %4 = alloca ptr, align 8
  %5 = alloca ptr, align 8
  %6 = alloca ptr, align 8
  %7 = alloca ptr, align 8
  store ptr %0, ptr %4, align 8
  store ptr %1, ptr %5, align 8
  %8 = load ptr, ptr %4, align 8
  %9 = call noundef nonnull align 8 dereferenceable(72) ptr @_ZN5clang19RecursiveASTVisitorIN12_GLOBAL__N_123ZeroOutInDeallocRemoverEE10getDerivedEv(ptr noundef nonnull align 1 dereferenceable(1) %8)
  %10 = load ptr, ptr %5, align 8
  %11 = call noundef zeroext i1 @_ZN5clang19RecursiveASTVisitorIN12_GLOBAL__N_123ZeroOutInDeallocRemoverEE9VisitAttrEPNS_4AttrE(ptr noundef nonnull align 1 dereferenceable(1) %9, ptr noundef %10)
  br i1 %11, label %13, label %12

12:                                               ; preds = %2
  store i1 false, ptr %3, align 1
  br label %44

13:                                               ; preds = %2
  %14 = call noundef nonnull align 8 dereferenceable(72) ptr @_ZN5clang19RecursiveASTVisitorIN12_GLOBAL__N_123ZeroOutInDeallocRemoverEE10getDerivedEv(ptr noundef nonnull align 1 dereferenceable(1) %8)
  %15 = load ptr, ptr %5, align 8
  %16 = call noundef zeroext i1 @_ZN5clang19RecursiveASTVisitorIN12_GLOBAL__N_123ZeroOutInDeallocRemoverEE30VisitSharedTrylockFunctionAttrEPNS_25SharedTrylockFunctionAttrE(ptr noundef nonnull align 1 dereferenceable(1) %14, ptr noundef %15)
  br i1 %16, label %18, label %17

17:                                               ; preds = %13
  store i1 false, ptr %3, align 1
  br label %44

18:                                               ; preds = %13
  %19 = call noundef nonnull align 8 dereferenceable(72) ptr @_ZN5clang19RecursiveASTVisitorIN12_GLOBAL__N_123ZeroOutInDeallocRemoverEE10getDerivedEv(ptr noundef nonnull align 1 dereferenceable(1) %8)
  %20 = load ptr, ptr %5, align 8
  %21 = call noundef ptr @_ZNK5clang25SharedTrylockFunctionAttr15getSuccessValueEv(ptr noundef nonnull align 8 dereferenceable(64) %20)
  %22 = call noundef zeroext i1 @_ZN5clang19RecursiveASTVisitorIN12_GLOBAL__N_123ZeroOutInDeallocRemoverEE12TraverseStmtEPNS_4StmtEPN4llvm15SmallVectorImplINS6_14PointerIntPairIS5_Lj1EbNS6_21PointerLikeTypeTraitsIS5_EENS6_18PointerIntPairInfoIS5_Lj1ESA_EEEEEE(ptr noundef nonnull align 1 dereferenceable(1) %19, ptr noundef %21, ptr noundef null)
  br i1 %22, label %24, label %23

23:                                               ; preds = %18
  store i1 false, ptr %3, align 1
  br label %44

24:                                               ; preds = %18
  %25 = load ptr, ptr %5, align 8
  %26 = call noundef ptr @_ZNK5clang25SharedTrylockFunctionAttr10args_beginEv(ptr noundef nonnull align 8 dereferenceable(64) %25)
  store ptr %26, ptr %6, align 8
  %27 = load ptr, ptr %5, align 8
  %28 = call noundef ptr @_ZNK5clang25SharedTrylockFunctionAttr8args_endEv(ptr noundef nonnull align 8 dereferenceable(64) %27)
  store ptr %28, ptr %7, align 8
  br label %29

29:                                               ; preds = %40, %24
  %30 = load ptr, ptr %6, align 8
  %31 = load ptr, ptr %7, align 8
  %32 = icmp ne ptr %30, %31
  br i1 %32, label %33, label %43

33:                                               ; preds = %29
  %34 = call noundef nonnull align 8 dereferenceable(72) ptr @_ZN5clang19RecursiveASTVisitorIN12_GLOBAL__N_123ZeroOutInDeallocRemoverEE10getDerivedEv(ptr noundef nonnull align 1 dereferenceable(1) %8)
  %35 = load ptr, ptr %6, align 8
  %36 = load ptr, ptr %35, align 8
  %37 = call noundef zeroext i1 @_ZN5clang19RecursiveASTVisitorIN12_GLOBAL__N_123ZeroOutInDeallocRemoverEE12TraverseStmtEPNS_4StmtEPN4llvm15SmallVectorImplINS6_14PointerIntPairIS5_Lj1EbNS6_21PointerLikeTypeTraitsIS5_EENS6_18PointerIntPairInfoIS5_Lj1ESA_EEEEEE(ptr noundef nonnull align 1 dereferenceable(1) %34, ptr noundef %36, ptr noundef null)
  br i1 %37, label %39, label %38

38:                                               ; preds = %33
  store i1 false, ptr %3, align 1
  br label %44

39:                                               ; preds = %33
  br label %40

40:                                               ; preds = %39
  %41 = load ptr, ptr %6, align 8
  %42 = getelementptr inbounds ptr, ptr %41, i32 1
  store ptr %42, ptr %6, align 8
  br label %29, !llvm.loop !59

43:                                               ; preds = %29
  store i1 true, ptr %3, align 1
  br label %44

44:                                               ; preds = %43, %38, %23, %17, %12
  %45 = load i1, ptr %3, align 1
  ret i1 %45
}